target datalayout = "e-m:e-p270:32:32-p271:32:32-p272:64:64-i64:64-i128:128-f80:128-n8:16:32:64-S128"
target triple = "x86_64-pc-linux-gnu"

%struct.mi_page_s = type { i32, i32, i8, i16, i16, %union.mi_page_flags_s, i8, ptr, i32, i32, ptr, i64, i64, ptr, ptr, [1 x i64] }
%union.mi_page_flags_s = type { i8 }
%struct.mi_block_s = type { i64 }

; Function Attrs: inlinehint nounwind uwtable
define internal void @mi_block_set_nextx(ptr noundef %0, ptr noundef %1, ptr noundef %2, ptr noundef %3) #1 {
  %5 = alloca ptr, align 8
  %6 = alloca ptr, align 8
  %7 = alloca ptr, align 8
  %8 = alloca ptr, align 8
  store ptr %0, ptr %5, align 8, !tbaa !53
  store ptr %1, ptr %6, align 8, !tbaa !39
  store ptr %2, ptr %7, align 8, !tbaa !39
  store ptr %3, ptr %8, align 8, !tbaa !54
  %9 = load ptr, ptr %7, align 8, !tbaa !39
  %10 = ptrtoint ptr %9 to i64
  %11 = load ptr, ptr %6, align 8, !tbaa !39
  %12 = getelementptr inbounds nuw %struct.mi_block_s, ptr %11, i32 0, i32 0
  store i64 %10, ptr %12, align 8, !tbaa !56
  ret void
}

; Function Attrs: inlinehint nounwind uwtable
define internal ptr @_mi_ptr_segment(ptr noundef %0) #1 {
  %2 = alloca ptr, align 8
  store ptr %0, ptr %2, align 8, !tbaa !53
  %3 = load ptr, ptr %2, align 8, !tbaa !53
  %4 = ptrtoint ptr %3 to i64
  %5 = and i64 %4, -67108864
  %6 = inttoptr i64 %5 to ptr
  ret ptr %6
}

; Function Attrs: inlinehint nounwind uwtable
define internal void @mi_block_set_next(ptr noundef %0, ptr noundef %1, ptr noundef %2) #1 {
  %4 = alloca ptr, align 8
  %5 = alloca ptr, align 8
  %6 = alloca ptr, align 8
  store ptr %0, ptr %4, align 8, !tbaa !17
  store ptr %1, ptr %5, align 8, !tbaa !39
  store ptr %2, ptr %6, align 8, !tbaa !39
  %7 = load ptr, ptr %4, align 8, !tbaa !17
  %8 = load ptr, ptr %5, align 8, !tbaa !39
  %9 = load ptr, ptr %6, align 8, !tbaa !39
  call void @mi_block_set_nextx(ptr noundef %7, ptr noundef %8, ptr noundef %9, ptr noundef null)
  ret void
}

; Function Attrs: inlinehint nounwind uwtable
define internal ptr @mi_page_block_at(ptr noundef %0, ptr noundef %1, i64 noundef %2, i64 noundef %3) #1 {
  %5 = alloca ptr, align 8
  %6 = alloca ptr, align 8
  %7 = alloca i64, align 8
  %8 = alloca i64, align 8
  store ptr %0, ptr %5, align 8, !tbaa !17
  store ptr %1, ptr %6, align 8, !tbaa !53
  store i64 %2, ptr %7, align 8, !tbaa !3
  store i64 %3, ptr %8, align 8, !tbaa !3
  %9 = load ptr, ptr %6, align 8, !tbaa !53
  %10 = load i64, ptr %8, align 8, !tbaa !3
  %11 = load i64, ptr %7, align 8, !tbaa !3
  %12 = mul i64 %10, %11
  %13 = getelementptr inbounds nuw i8, ptr %9, i64 %12
  ret ptr %13
}

; Function Attrs: inlinehint nounwind uwtable
define internal ptr @_mi_page_start(ptr noundef %0, ptr noundef %1, ptr noundef %2) #1 {
  %4 = alloca ptr, align 8
  %5 = alloca ptr, align 8
  %6 = alloca ptr, align 8
  store ptr %0, ptr %4, align 8, !tbaa !75
  store ptr %1, ptr %5, align 8, !tbaa !17
  store ptr %2, ptr %6, align 8, !tbaa !54
  %7 = load ptr, ptr %4, align 8, !tbaa !75
  %8 = load ptr, ptr %5, align 8, !tbaa !17
  %9 = load ptr, ptr %6, align 8, !tbaa !54
  %10 = call ptr @_mi_segment_page_start(ptr noundef %7, ptr noundef %8, ptr noundef %9)
  ret ptr %10
}

; Function Attrs: inlinehint nounwind uwtable
define internal ptr @_mi_page_segment(ptr noundef %0) #1 {
  %2 = alloca ptr, align 8
  %3 = alloca ptr, align 8
  store ptr %0, ptr %2, align 8, !tbaa !17
  call void @llvm.lifetime.start.p0(i64 8, ptr %3) #6
  %4 = load ptr, ptr %2, align 8, !tbaa !17
  %5 = call ptr @_mi_ptr_segment(ptr noundef %4)
  store ptr %5, ptr %3, align 8, !tbaa !75
  %6 = load ptr, ptr %3, align 8, !tbaa !75
  call void @llvm.lifetime.end.p0(i64 8, ptr %3) #6
  ret ptr %6
}

; Function Attrs: noinline nounwind uwtable
define internal void @mi_page_free_list_extend(ptr noundef %0, i64 noundef %1, i64 noundef %2, ptr noundef %3) #7 {
  %5 = alloca ptr, align 8
  %6 = alloca i64, align 8
  %7 = alloca i64, align 8
  %8 = alloca ptr, align 8
  %9 = alloca ptr, align 8
  %10 = alloca ptr, align 8
  %11 = alloca ptr, align 8
  %12 = alloca ptr, align 8
  %13 = alloca ptr, align 8
  store ptr %0, ptr %5, align 8, !tbaa !17
  store i64 %1, ptr %6, align 8, !tbaa !3
  store i64 %2, ptr %7, align 8, !tbaa !3
  store ptr %3, ptr %8, align 8, !tbaa !79
  call void @llvm.lifetime.start.p0(i64 8, ptr %9) #6
  %14 = load ptr, ptr %5, align 8, !tbaa !17
  %15 = call ptr @_mi_page_segment(ptr noundef %14)
  %16 = load ptr, ptr %5, align 8, !tbaa !17
  %17 = call ptr @_mi_page_start(ptr noundef %15, ptr noundef %16, ptr noundef null)
  store ptr %17, ptr %9, align 8, !tbaa !53
  call void @llvm.lifetime.start.p0(i64 8, ptr %10) #6
  %18 = load ptr, ptr %5, align 8, !tbaa !17
  %19 = load ptr, ptr %9, align 8, !tbaa !53
  %20 = load i64, ptr %6, align 8, !tbaa !3
  %21 = load ptr, ptr %5, align 8, !tbaa !17
  %22 = getelementptr inbounds nuw %struct.mi_page_s, ptr %21, i32 0, i32 3
  %23 = load i16, ptr %22, align 2, !tbaa !42
  %24 = zext i16 %23 to i64
  %25 = call ptr @mi_page_block_at(ptr noundef %18, ptr noundef %19, i64 noundef %20, i64 noundef %24)
  store ptr %25, ptr %10, align 8, !tbaa !39
  call void @llvm.lifetime.start.p0(i64 8, ptr %11) #6
  %26 = load ptr, ptr %5, align 8, !tbaa !17
  %27 = load ptr, ptr %9, align 8, !tbaa !53
  %28 = load i64, ptr %6, align 8, !tbaa !3
  %29 = load ptr, ptr %5, align 8, !tbaa !17
  %30 = getelementptr inbounds nuw %struct.mi_page_s, ptr %29, i32 0, i32 3
  %31 = load i16, ptr %30, align 2, !tbaa !42
  %32 = zext i16 %31 to i64
  %33 = load i64, ptr %7, align 8, !tbaa !3
  %34 = add i64 %32, %33
  %35 = sub i64 %34, 1
  %36 = call ptr @mi_page_block_at(ptr noundef %26, ptr noundef %27, i64 noundef %28, i64 noundef %35)
  store ptr %36, ptr %11, align 8, !tbaa !39
  call void @llvm.lifetime.start.p0(i64 8, ptr %12) #6
  %37 = load ptr, ptr %10, align 8, !tbaa !39
  store ptr %37, ptr %12, align 8, !tbaa !39
  br label %38

38:                                               ; preds = %42, %4
  %39 = load ptr, ptr %12, align 8, !tbaa !39
  %40 = load ptr, ptr %11, align 8, !tbaa !39
  %41 = icmp ule ptr %39, %40
  br i1 %41, label %42, label %50

42:                                               ; preds = %38
  call void @llvm.lifetime.start.p0(i64 8, ptr %13) #6
  %43 = load ptr, ptr %12, align 8, !tbaa !39
  %44 = load i64, ptr %6, align 8, !tbaa !3
  %45 = getelementptr inbounds nuw i8, ptr %43, i64 %44
  store ptr %45, ptr %13, align 8, !tbaa !39
  %46 = load ptr, ptr %5, align 8, !tbaa !17
  %47 = load ptr, ptr %12, align 8, !tbaa !39
  %48 = load ptr, ptr %13, align 8, !tbaa !39
  call void @mi_block_set_next(ptr noundef %46, ptr noundef %47, ptr noundef %48)
  %49 = load ptr, ptr %13, align 8, !tbaa !39
  store ptr %49, ptr %12, align 8, !tbaa !39
  call void @llvm.lifetime.end.p0(i64 8, ptr %13) #6
  br label %38, !llvm.loop !80

50:                                               ; preds = %38
  %51 = load ptr, ptr %5, align 8, !tbaa !17
  %52 = load ptr, ptr %11, align 8, !tbaa !39
  %53 = load ptr, ptr %5, align 8, !tbaa !17
  %54 = getelementptr inbounds nuw %struct.mi_page_s, ptr %53, i32 0, i32 7
  %55 = load ptr, ptr %54, align 8, !tbaa !38
  call void @mi_block_set_next(ptr noundef %51, ptr noundef %52, ptr noundef %55)
  %56 = load ptr, ptr %10, align 8, !tbaa !39
  %57 = load ptr, ptr %5, align 8, !tbaa !17
  %58 = getelementptr inbounds nuw %struct.mi_page_s, ptr %57, i32 0, i32 7
  store ptr %56, ptr %58, align 8, !tbaa !38
  call void @llvm.lifetime.end.p0(i64 8, ptr %12) #6
  call void @llvm.lifetime.end.p0(i64 8, ptr %11) #6
  call void @llvm.lifetime.end.p0(i64 8, ptr %10) #6
  call void @llvm.lifetime.end.p0(i64 8, ptr %9) #6
  ret void
}