; Function Attrs: noinline nounwind uwtable
define internal fastcc void @mi_page_free_list_extend(ptr noundef nonnull %0, i64 noundef %1, i64 noundef range(i64 0, 4097) %2) unnamed_addr #9 {
  %4 = ptrtoint ptr %0 to i64
  %5 = and i64 %4, -67108864
  %6 = inttoptr i64 %5 to ptr
  %7 = tail call ptr @_mi_segment_page_start(ptr noundef %6, ptr noundef nonnull %0, ptr noundef null) #8
  %8 = getelementptr inbounds nuw i8, ptr %0, i64 10
  %9 = load i16, ptr %8, align 2, !tbaa !27
  %10 = zext i16 %9 to i64
  %11 = mul i64 %1, %10
  %12 = getelementptr inbounds nuw i8, ptr %7, i64 %11
  %13 = add nsw i64 %2, -1
  %14 = add nsw i64 %13, %10
  %15 = mul i64 %14, %1
  %16 = getelementptr inbounds nuw i8, ptr %7, i64 %15
  %.not1 = icmp samesign ugt i64 %11, %15
  br i1 %.not1, label %._crit_edge, label %.lr.ph

.lr.ph:                                           ; preds = %3, %.lr.ph
  %.02 = phi ptr [ %17, %.lr.ph ], [ %12, %3 ]
  %17 = getelementptr inbounds nuw i8, ptr %.02, i64 %1
  %18 = ptrtoint ptr %17 to i64
  store i64 %18, ptr %.02, align 8, !tbaa !28
  %.not = icmp ugt ptr %17, %16
  br i1 %.not, label %._crit_edge, label %.lr.ph, !llvm.loop !68

._crit_edge:                                      ; preds = %.lr.ph, %3
  %19 = getelementptr inbounds nuw i8, ptr %0, i64 16
  %20 = load ptr, ptr %19, align 8, !tbaa !33
  %21 = ptrtoint ptr %20 to i64
  store i64 %21, ptr %16, align 8, !tbaa !28
  store ptr %12, ptr %19, align 8, !tbaa !33
  ret void
}